target datalayout = "e-m:e-p270:32:32-p271:32:32-p272:64:64-i64:64-i128:128-f80:128-n8:16:32:64-S128"
target triple = "x86_64-unknown-linux-gnu"

%class.btSubsimplexConvexCast = type { %class.btConvexCast, ptr, ptr, ptr }
%class.btConvexCast = type { ptr }

@_ZTV12btConvexCast = external unnamed_addr constant { [5 x ptr] }, align 8

; Function Attrs: mustprogress nounwind uwtable
define linkonce_odr dso_local void @_ZN12btConvexCastC2Ev(ptr noundef nonnull align 8 dereferenceable(8) %this) unnamed_addr #1 comdat align 2 {
entry:
  %this.addr = alloca ptr, align 8
  store ptr %this, ptr %this.addr, align 8
  %this1 = load ptr, ptr %this.addr, align 8
  store ptr getelementptr inbounds ({ [5 x ptr] }, ptr @_ZTV12btConvexCast, i32 0, i32 0, i32 2), ptr %this1, align 8
  ret void
}

; Function Attrs: mustprogress nounwind uwtable
define dso_local void @_ZN22btSubsimplexConvexCastC2EPK13btConvexShapeS2_P22btVoronoiSimplexSolver(ptr noundef nonnull align 8 dereferenceable(32) %this, ptr noundef %convexA, ptr noundef %convexB, ptr noundef %simplexSolver) unnamed_addr #1 align 2 {
entry:
  %this.addr = alloca ptr, align 8
  %convexA.addr = alloca ptr, align 8
  %convexB.addr = alloca ptr, align 8
  %simplexSolver.addr = alloca ptr, align 8
  store ptr %this, ptr %this.addr, align 8
  store ptr %convexA, ptr %convexA.addr, align 8
  store ptr %convexB, ptr %convexB.addr, align 8
  store ptr %simplexSolver, ptr %simplexSolver.addr, align 8
  %this1 = load ptr, ptr %this.addr, align 8
  call void @_ZN12btConvexCastC2Ev(ptr noundef nonnull align 8 dereferenceable(8) %this1) #9
  store ptr getelementptr inbounds ({ [5 x ptr] }, ptr @_ZTV22btSubsimplexConvexCast, i32 0, i32 0, i32 2), ptr %this1, align 8
  %m_simplexSolver = getelementptr inbounds %class.btSubsimplexConvexCast, ptr %this1, i32 0, i32 1
  %0 = load ptr, ptr %simplexSolver.addr, align 8
  store ptr %0, ptr %m_simplexSolver, align 8
  %m_convexA = getelementptr inbounds %class.btSubsimplexConvexCast, ptr %this1, i32 0, i32 2
  %1 = load ptr, ptr %convexA.addr, align 8
  store ptr %1, ptr %m_convexA, align 8
  %m_convexB = getelementptr inbounds %class.btSubsimplexConvexCast, ptr %this1, i32 0, i32 3
  %2 = load ptr, ptr %convexB.addr, align 8
  store ptr %2, ptr %m_convexB, align 8
  ret void
}