; Function Attrs: mustprogress nofree norecurse nosync nounwind willreturn memory(argmem: write) uwtable
define dso_local void @_ZN22btSubsimplexConvexCastC2EPK13btConvexShapeS2_P22btVoronoiSimplexSolver(ptr nocapture noundef nonnull writeonly align 8 dereferenceable(32) %this, ptr noundef %convexA, ptr noundef %convexB, ptr noundef %simplexSolver) unnamed_addr #0 align 2 {
entry:
  store ptr getelementptr inbounds ({ [5 x ptr] }, ptr @_ZTV22btSubsimplexConvexCast, i64 0, i32 0, i64 2), ptr %this, align 8
  %m_simplexSolver = getelementptr inbounds i8, ptr %this, i64 8
  store ptr %simplexSolver, ptr %m_simplexSolver, align 8
  %m_convexA = getelementptr inbounds i8, ptr %this, i64 16
  store ptr %convexA, ptr %m_convexA, align 8
  %m_convexB = getelementptr inbounds i8, ptr %this, i64 24
  store ptr %convexB, ptr %m_convexB, align 8
  ret void
}